target datalayout = "e-m:e-p270:32:32-p271:32:32-p272:64:64-i64:64-i128:128-f80:128-n8:16:32:64-S128"
target triple = "x86_64-pc-linux-gnu"

@.str.39 = private unnamed_addr constant [96 x i8] c"Using too small ``bin_construct_sample_cnt`` may encounter unexpected errors and poor accuracy.\00", align 1

; Function Attrs: mustprogress uwtable
define void @_ZN8LightGBM15CheckSampleSizeEmm(i64 noundef %0, i64 noundef %1) #4 {
  %3 = alloca i64, align 8
  %4 = alloca i64, align 8
  store i64 %0, ptr %3, align 8, !tbaa !87
  store i64 %1, ptr %4, align 8, !tbaa !87
  %5 = load i64, ptr %3, align 8, !tbaa !87
  %6 = uitofp i64 %5 to double
  %7 = load i64, ptr %4, align 8, !tbaa !87
  %8 = uitofp i64 %7 to double
  %9 = fdiv double %6, %8
  %10 = fcmp olt double %9, 0x3FC99999A0000000
  br i1 %10, label %11, label %15

11:                                               ; preds = %2
  %12 = load i64, ptr %3, align 8, !tbaa !87
  %13 = icmp ult i64 %12, 100000
  br i1 %13, label %14, label %15

14:                                               ; preds = %11
  call void (ptr, ...) @_ZN8LightGBM3Log7WarningEPKcz(ptr noundef @.str.39)
  br label %15

15:                                               ; preds = %14, %11, %2
  ret void
}