; Function Attrs: mustprogress uwtable
define void @_ZN8LightGBM15CheckSampleSizeEmm(i64 noundef %0, i64 noundef %1) local_unnamed_addr #3 {
  %3 = uitofp i64 %0 to double
  %4 = uitofp i64 %1 to double
  %5 = fdiv double %3, %4
  %6 = fcmp olt double %5, 0x3FC99999A0000000
  %7 = icmp ult i64 %0, 100000
  %or.cond = and i1 %7, %6
  br i1 %or.cond, label %8, label %9

8:                                                ; preds = %2
  tail call void (ptr, ...) @_ZN8LightGBM3Log7WarningEPKcz(ptr noundef nonnull @.str.39)
  br label %9

9:                                                ; preds = %8, %2
  ret void
}